#include <math.h>
#include <stdio.h>
#include <stdlib.h>
#include <string.h>

int main()
{int n,i,m=0,p,flag=0,a=-2,b;
scanf("%d",&n);
for(i=0;i<n*n;i++)
{scanf("%d",&p);
if(p==0)
{if(m==0) {flag=1;m++;a++;}
else if(flag==1) {m++;a++;}
else m++;}
else {if(flag==1) flag=0;}
}
b=m/2-a-2;
printf("%d",a*b);
}
